target datalayout = "e-m:e-p270:32:32-p271:32:32-p272:64:64-i64:64-i128:128-f80:128-n8:16:32:64-S128"
target triple = "x86_64-pc-linux-gnu"

%struct.__va_list_tag = type { i32, i32, ptr, ptr }

; Function Attrs: nounwind uwtable
define internal ptr @exprintf(ptr noundef %0, ptr noundef %1, ...) #0 {
  %3 = alloca ptr, align 8
  %4 = alloca ptr, align 8
  %5 = alloca ptr, align 8
  %6 = alloca [1 x %struct.__va_list_tag], align 16
  %7 = alloca [1 x %struct.__va_list_tag], align 16
  %8 = alloca i32, align 4
  %9 = alloca ptr, align 8
  store ptr %0, ptr %4, align 8
  store ptr %1, ptr %5, align 8
  %10 = getelementptr inbounds [1 x %struct.__va_list_tag], ptr %6, i64 0, i64 0
  call void @llvm.va_start.p0(ptr %10)
  %11 = getelementptr inbounds [1 x %struct.__va_list_tag], ptr %7, i64 0, i64 0
  %12 = getelementptr inbounds [1 x %struct.__va_list_tag], ptr %6, i64 0, i64 0
  call void @llvm.va_copy.p0(ptr %11, ptr %12)
  %13 = load ptr, ptr %5, align 8
  %14 = getelementptr inbounds [1 x %struct.__va_list_tag], ptr %7, i64 0, i64 0
  %15 = call i32 @vsnprintf(ptr noundef null, i64 noundef 0, ptr noundef %13, ptr noundef %14) #12
  store i32 %15, ptr %8, align 4
  %16 = load i32, ptr %8, align 4
  %17 = add nsw i32 %16, 1
  store i32 %17, ptr %8, align 4
  %18 = getelementptr inbounds [1 x %struct.__va_list_tag], ptr %7, i64 0, i64 0
  call void @llvm.va_end.p0(ptr %18)
  %19 = load ptr, ptr %4, align 8
  %20 = load i32, ptr %8, align 4
  %21 = sext i32 %20 to i64
  %22 = call ptr @vmalloc(ptr noundef %19, i64 noundef %21)
  store ptr %22, ptr %9, align 8
  %23 = load ptr, ptr %9, align 8
  %24 = icmp eq ptr %23, null
  br i1 %24, label %25, label %28

25:                                               ; preds = %2
  %26 = getelementptr inbounds [1 x %struct.__va_list_tag], ptr %6, i64 0, i64 0
  call void @llvm.va_end.p0(ptr %26)
  %27 = call ptr @exnospace()
  store ptr %27, ptr %3, align 8
  br label %37

28:                                               ; preds = %2
  %29 = load ptr, ptr %9, align 8
  %30 = load i32, ptr %8, align 4
  %31 = sext i32 %30 to i64
  %32 = load ptr, ptr %5, align 8
  %33 = getelementptr inbounds [1 x %struct.__va_list_tag], ptr %6, i64 0, i64 0
  %34 = call i32 @vsnprintf(ptr noundef %29, i64 noundef %31, ptr noundef %32, ptr noundef %33) #12
  %35 = getelementptr inbounds [1 x %struct.__va_list_tag], ptr %6, i64 0, i64 0
  call void @llvm.va_end.p0(ptr %35)
  %36 = load ptr, ptr %9, align 8
  store ptr %36, ptr %3, align 8
  br label %37

37:                                               ; preds = %28, %25
  %38 = load ptr, ptr %3, align 8
  ret ptr %38
}