; Function Attrs: nounwind uwtable
define internal ptr @exprintf(ptr noundef %0, ptr noundef readonly captures(none) %1, ...) unnamed_addr #0 {
  %3 = alloca [1 x %struct.__va_list_tag], align 16
  %4 = alloca [1 x %struct.__va_list_tag], align 16
  call void @llvm.va_start.p0(ptr nonnull %3)
  call void @llvm.va_copy.p0(ptr nonnull %4, ptr nonnull %3)
  %5 = call i32 @vsnprintf(ptr noundef null, i64 noundef 0, ptr noundef %1, ptr noundef nonnull %4) #22
  %6 = add nsw i32 %5, 1
  call void @llvm.va_end.p0(ptr nonnull %4)
  %7 = sext i32 %6 to i64
  %8 = call ptr @vmalloc(ptr noundef %0, i64 noundef %7) #22
  %9 = icmp eq ptr %8, null
  br i1 %9, label %10, label %12

10:                                               ; preds = %2
  call void @llvm.va_end.p0(ptr nonnull %3)
  %11 = call ptr @exnospace() #22
  br label %14

12:                                               ; preds = %2
  %13 = call i32 @vsnprintf(ptr noundef nonnull %8, i64 noundef %7, ptr noundef %1, ptr noundef nonnull %3) #22
  call void @llvm.va_end.p0(ptr nonnull %3)
  br label %14

14:                                               ; preds = %12, %10
  %.0 = phi ptr [ %11, %10 ], [ %8, %12 ]
  ret ptr %.0
}